; Function Attrs: nounwind uwtable
define ptr @l___private_Std_Sync_Channel_0__Std_CloseableChannel_Unbounded_tryRecv_x27___rarg(ptr noundef %0, ptr noundef %1, ptr noundef %2) #1 {
  %4 = getelementptr inbounds nuw i8, ptr %0, i64 16
  %5 = load ptr, ptr %4, align 8, !tbaa !10
  %6 = ptrtoint ptr %5 to i64
  %7 = and i64 %6, 1
  %.not = icmp eq i64 %7, 0
  br i1 %.not, label %8, label %lean_inc.exit25

8:                                                ; preds = %3
  %.val.i = load i32, ptr %5, align 4, !tbaa !4
  %9 = icmp sgt i32 %.val.i, 0
  br i1 %9, label %10, label %12, !prof !9

10:                                               ; preds = %8
  %11 = add nuw i32 %.val.i, 1
  store i32 %11, ptr %5, align 4, !tbaa !4
  br label %lean_inc.exit25

12:                                               ; preds = %8
  %.not.i = icmp eq i32 %.val.i, 0
  br i1 %.not.i, label %lean_inc.exit25, label %13

13:                                               ; preds = %12
  tail call void @lean_inc_ref_cold(ptr noundef nonnull %5) #7
  br label %lean_inc.exit25

lean_inc.exit25:                                  ; preds = %13, %12, %10, %3
  %14 = ptrtoint ptr %2 to i64
  %15 = and i64 %14, 1
  %.not36 = icmp eq i64 %15, 0
  br i1 %.not36, label %16, label %lean_inc.exit24

16:                                               ; preds = %lean_inc.exit25
  %.val.i26 = load i32, ptr %2, align 4, !tbaa !4
  %17 = icmp sgt i32 %.val.i26, 0
  br i1 %17, label %18, label %20, !prof !9

18:                                               ; preds = %16
  %19 = add nuw i32 %.val.i26, 1
  store i32 %19, ptr %2, align 4, !tbaa !4
  br label %lean_inc.exit24

20:                                               ; preds = %16
  %.not.i27 = icmp eq i32 %.val.i26, 0
  br i1 %.not.i27, label %lean_inc.exit24, label %21

21:                                               ; preds = %20
  tail call void @lean_inc_ref_cold(ptr noundef nonnull %2) #7
  br label %lean_inc.exit24

lean_inc.exit24:                                  ; preds = %21, %20, %18, %lean_inc.exit25
  tail call void @lean_inc_heartbeat() #7
  %22 = tail call noalias ptr @mi_malloc_small(i64 noundef 48) #7
  %23 = icmp eq ptr %22, null
  br i1 %23, label %24, label %lean_alloc_closure.exit

24:                                               ; preds = %lean_inc.exit24
  tail call void @lean_internal_panic_out_of_memory() #8
  unreachable

lean_alloc_closure.exit:                          ; preds = %lean_inc.exit24
  %25 = getelementptr inbounds nuw i8, ptr %22, i64 4
  store i32 1, ptr %22, align 4, !tbaa !4
  store i32 -184549328, ptr %25, align 4
  %26 = getelementptr inbounds nuw i8, ptr %22, i64 8
  store ptr @l_ST_Prim_Ref_get___boxed, ptr %26, align 8, !tbaa !10
  %27 = getelementptr inbounds nuw i8, ptr %22, i64 16
  store i16 4, ptr %27, align 8, !tbaa !12
  %28 = getelementptr inbounds nuw i8, ptr %22, i64 18
  store i16 3, ptr %28, align 2, !tbaa !12
  %29 = getelementptr inbounds nuw i8, ptr %22, i64 24
  store ptr inttoptr (i64 1 to ptr), ptr %29, align 8, !tbaa !10
  %30 = getelementptr inbounds nuw i8, ptr %22, i64 32
  store ptr inttoptr (i64 1 to ptr), ptr %30, align 8, !tbaa !10
  %31 = getelementptr inbounds nuw i8, ptr %22, i64 40
  store ptr %2, ptr %31, align 8, !tbaa !10
  %32 = ptrtoint ptr %1 to i64
  %33 = and i64 %32, 1
  %.not37 = icmp eq i64 %33, 0
  br i1 %.not37, label %34, label %lean_inc.exit23

34:                                               ; preds = %lean_alloc_closure.exit
  %.val.i29 = load i32, ptr %1, align 4, !tbaa !4
  %35 = icmp sgt i32 %.val.i29, 0
  br i1 %35, label %36, label %38, !prof !9

36:                                               ; preds = %34
  %37 = add nuw i32 %.val.i29, 1
  store i32 %37, ptr %1, align 4, !tbaa !4
  br label %lean_inc.exit23

38:                                               ; preds = %34
  %.not.i30 = icmp eq i32 %.val.i29, 0
  br i1 %.not.i30, label %lean_inc.exit23, label %39

39:                                               ; preds = %38
  tail call void @lean_inc_ref_cold(ptr noundef nonnull %1) #7
  br label %lean_inc.exit23

lean_inc.exit23:                                  ; preds = %39, %38, %36, %lean_alloc_closure.exit
  %40 = tail call ptr @lean_apply_2(ptr noundef %1, ptr noundef nonnull inttoptr (i64 1 to ptr), ptr noundef nonnull %22) #7
  br i1 %.not, label %41, label %lean_inc.exit

41:                                               ; preds = %lean_inc.exit23
  %.val.i32 = load i32, ptr %5, align 4, !tbaa !4
  %42 = icmp sgt i32 %.val.i32, 0
  br i1 %42, label %43, label %45, !prof !9

43:                                               ; preds = %41
  %44 = add nuw i32 %.val.i32, 1
  store i32 %44, ptr %5, align 4, !tbaa !4
  br label %lean_inc.exit

45:                                               ; preds = %41
  %.not.i33 = icmp eq i32 %.val.i32, 0
  br i1 %.not.i33, label %lean_inc.exit, label %46

46:                                               ; preds = %45
  tail call void @lean_inc_ref_cold(ptr noundef nonnull %5) #7
  br label %lean_inc.exit

lean_inc.exit:                                    ; preds = %46, %45, %43, %lean_inc.exit23
  tail call void @lean_inc_heartbeat() #7
  %47 = tail call noalias ptr @mi_malloc_small(i64 noundef 56) #7
  %48 = icmp eq ptr %47, null
  br i1 %48, label %49, label %lean_alloc_closure.exit35

49:                                               ; preds = %lean_inc.exit
  tail call void @lean_internal_panic_out_of_memory() #8
  unreachable

lean_alloc_closure.exit35:                        ; preds = %lean_inc.exit
  %50 = getelementptr inbounds nuw i8, ptr %47, i64 4
  store i32 1, ptr %47, align 4, !tbaa !4
  store i32 -184549320, ptr %50, align 4
  %51 = getelementptr inbounds nuw i8, ptr %47, i64 8
  store ptr @l___private_Std_Sync_Channel_0__Std_CloseableChannel_Unbounded_tryRecv_x27___rarg___lambda__2, ptr %51, align 8, !tbaa !10
  %52 = getelementptr inbounds nuw i8, ptr %47, i64 16
  store i16 5, ptr %52, align 8, !tbaa !12
  %53 = getelementptr inbounds nuw i8, ptr %47, i64 18
  store i16 4, ptr %53, align 2, !tbaa !12
  %54 = getelementptr inbounds nuw i8, ptr %47, i64 24
  store ptr %0, ptr %54, align 8, !tbaa !10
  %55 = getelementptr inbounds nuw i8, ptr %47, i64 32
  store ptr %2, ptr %55, align 8, !tbaa !10
  %56 = getelementptr inbounds nuw i8, ptr %47, i64 40
  store ptr %1, ptr %56, align 8, !tbaa !10
  %57 = getelementptr inbounds nuw i8, ptr %47, i64 48
  store ptr %5, ptr %57, align 8, !tbaa !10
  %58 = tail call ptr @lean_apply_4(ptr noundef %5, ptr noundef nonnull inttoptr (i64 1 to ptr), ptr noundef nonnull inttoptr (i64 1 to ptr), ptr noundef %40, ptr noundef nonnull %47) #7
  ret ptr %58
}